; Function Attrs: nounwind uwtable
define hidden i32 @lsarpc_dissect_struct_lsa_TranslatedSid2(ptr noundef %0, i32 noundef %1, ptr noundef %2, ptr noundef %3, ptr noundef %4, ptr noundef %5, i32 noundef %6, i32 %7) local_unnamed_addr #0 {
  %9 = alloca i32, align 4
  %10 = getelementptr inbounds nuw i8, ptr %4, i64 28
  %11 = load i32, ptr %10, align 4
  %.not = icmp ne i32 %11, 0
  %12 = and i32 %1, 3
  %.not44 = icmp eq i32 %12, 0
  %or.cond = or i1 %.not44, %.not
  %13 = and i32 %1, -4
  %14 = add i32 %13, 4
  %.0 = select i1 %or.cond, i32 %1, i32 %14
  %.not45 = icmp eq ptr %3, null
  br i1 %.not45, label %19, label %15

15:                                               ; preds = %8
  %16 = tail call ptr @proto_tree_add_item(ptr noundef nonnull %3, i32 noundef %6, ptr noundef %0, i32 noundef %.0, i32 noundef -1, i32 noundef 0) #5
  %17 = load i32, ptr @ett_lsarpc_lsa_TranslatedSid2, align 4
  %18 = tail call ptr @proto_item_add_subtree(ptr noundef %16, i32 noundef %17) #5
  br label %19

19:                                               ; preds = %15, %8
  %.042 = phi ptr [ %16, %15 ], [ null, %8 ]
  %.041 = phi ptr [ %18, %15 ], [ null, %8 ]
  %20 = load i32, ptr @hf_lsarpc_lsa_TranslatedSid2_sid_type, align 4
  call void @llvm.lifetime.start.p0(i64 4, ptr nonnull %9)
  store i32 0, ptr %9, align 4
  %21 = call i32 @dissect_ndr_uint1632(ptr noundef %0, i32 noundef %.0, ptr noundef %2, ptr noundef %.041, ptr noundef nonnull %4, ptr noundef %5, i32 noundef %20, ptr noundef nonnull %9) #5
  call void @llvm.lifetime.end.p0(i64 4, ptr nonnull %9)
  %22 = load i32, ptr @hf_lsarpc_lsa_TranslatedSid2_rid, align 4
  %23 = call i32 @PIDL_dissect_uint32(ptr noundef %0, i32 noundef %21, ptr noundef %2, ptr noundef %.041, ptr noundef nonnull %4, ptr noundef %5, i32 noundef %22, i32 noundef 0) #5
  %24 = load i32, ptr @hf_lsarpc_lsa_TranslatedSid2_sid_index, align 4
  %25 = call i32 @PIDL_dissect_uint32(ptr noundef %0, i32 noundef %23, ptr noundef %2, ptr noundef %.041, ptr noundef nonnull %4, ptr noundef %5, i32 noundef %24, i32 noundef 0) #5
  %26 = load i32, ptr @hf_lsarpc_lsa_TranslatedSid2_unknown, align 4
  %27 = call i32 @PIDL_dissect_uint32(ptr noundef %0, i32 noundef %25, ptr noundef %2, ptr noundef %.041, ptr noundef nonnull %4, ptr noundef %5, i32 noundef %26, i32 noundef 0) #5
  %28 = sub i32 %27, %.0
  call void @proto_item_set_len(ptr noundef %.042, i32 noundef %28) #5
  %29 = getelementptr inbounds nuw i8, ptr %4, i64 72
  %30 = load ptr, ptr %29, align 8
  %31 = getelementptr inbounds nuw i8, ptr %30, i64 96
  %32 = load i32, ptr %31, align 8
  %33 = and i32 %32, 1
  %.not46 = icmp eq i32 %33, 0
  br i1 %.not46, label %40, label %34

34:                                               ; preds = %19
  %35 = load i32, ptr %10, align 4
  %.not47 = icmp ne i32 %35, 0
  %36 = and i32 %27, 3
  %.not48 = icmp eq i32 %36, 0
  %or.cond49 = or i1 %.not48, %.not47
  br i1 %or.cond49, label %40, label %37

37:                                               ; preds = %34
  %38 = and i32 %27, -4
  %39 = add i32 %38, 4
  br label %40

40:                                               ; preds = %34, %37, %19
  %.1 = phi i32 [ %27, %34 ], [ %39, %37 ], [ %27, %19 ]
  ret i32 %.1
}